; Function Attrs: mustprogress uwtable
define internal void @"_ZNSt17_Function_handlerIFvRN3nix14AddCompletionsEmSt17basic_string_viewIcSt11char_traitsIcEEEZNS0_15MixFlakeOptionsC1EvE3$_3E9_M_invokeERKSt9_Any_dataS2_OmOS6_"(ptr nocapture noundef nonnull readonly align 8 dereferenceable(16) %0, ptr noundef nonnull align 8 dereferenceable(8) %1, ptr nocapture nonnull readonly align 8 %2, ptr nocapture noundef nonnull readonly align 8 dereferenceable(16) %3) #4 align 2 personality ptr @__gxx_personality_v0 {
  %5 = alloca %"class.nix::ref", align 8
  %6 = alloca %"class.std::vector", align 8
  %.val = load ptr, ptr %0, align 8
  %.val5 = load i64, ptr %3, align 8
  %7 = getelementptr inbounds i8, ptr %3, i64 8
  %.val6 = load ptr, ptr %7, align 8
  call void @llvm.lifetime.start.p0(i64 16, ptr nonnull %5)
  call void @llvm.lifetime.start.p0(i64 24, ptr nonnull %6)
  call void @_ZN3nix11EvalCommand12getEvalStateEv(ptr dead_on_unwind nonnull writable sret(%"class.nix::ref") align 8 %5, ptr noundef nonnull align 8 dereferenceable(160) %.val)
  %8 = load ptr, ptr %.val, align 8
  %9 = getelementptr inbounds i8, ptr %8, i64 16
  %10 = load ptr, ptr %9, align 8
  invoke void %10(ptr dead_on_unwind nonnull writable sret(%"class.std::vector") align 8 %6, ptr noundef nonnull align 8 dereferenceable(360) %.val)
          to label %11 unwind label %62

11:                                               ; preds = %4
  invoke void @_ZN3nix22completeFlakeInputPathERNS_14AddCompletionsENS_3refINS_9EvalStateEEERKSt6vectorINS_8FlakeRefESaIS6_EESt17basic_string_viewIcSt11char_traitsIcEE(ptr noundef nonnull align 8 dereferenceable(8) %1, ptr noundef nonnull %5, ptr noundef nonnull align 8 dereferenceable(24) %6, i64 %.val5, ptr %.val6)
          to label %12 unwind label %64

12:                                               ; preds = %11
  %13 = load ptr, ptr %6, align 8
  %14 = getelementptr inbounds i8, ptr %6, i64 8
  %15 = load ptr, ptr %14, align 8
  %.not4.i.i.i.i.i.i.i = icmp eq ptr %13, %15
  br i1 %.not4.i.i.i.i.i.i.i, label %_ZSt8_DestroyIPN3nix8FlakeRefES1_EvT_S3_RSaIT0_E.exit.i.i.i.i, label %.lr.ph.i.i.i.i.i.i.i

.lr.ph.i.i.i.i.i.i.i:                             ; preds = %12, %_ZSt8_DestroyIN3nix8FlakeRefEEvPT_.exit.i.i.i.i.i.i.i
  %.05.i.i.i.i.i.i.i = phi ptr [ %23, %_ZSt8_DestroyIN3nix8FlakeRefEEvPT_.exit.i.i.i.i.i.i.i ], [ %13, %12 ]
  %16 = getelementptr inbounds i8, ptr %.05.i.i.i.i.i.i.i, i64 104
  %17 = load ptr, ptr %16, align 8
  %18 = getelementptr inbounds i8, ptr %.05.i.i.i.i.i.i.i, i64 120
  %19 = icmp eq ptr %17, %18
  br i1 %19, label %_ZNKSt7__cxx1112basic_stringIcSt11char_traitsIcESaIcEE11_M_is_localEv.exit.thread.i.i.i.i.i.i.i.i.i.i.i.i, label %_ZNKSt7__cxx1112basic_stringIcSt11char_traitsIcESaIcEE11_M_is_localEv.exit.i.i.i.i.i.i.i.i.i.i.i.i

_ZNKSt7__cxx1112basic_stringIcSt11char_traitsIcESaIcEE11_M_is_localEv.exit.thread.i.i.i.i.i.i.i.i.i.i.i.i: ; preds = %.lr.ph.i.i.i.i.i.i.i
  %20 = getelementptr inbounds i8, ptr %.05.i.i.i.i.i.i.i, i64 112
  %21 = load i64, ptr %20, align 8
  %22 = icmp ult i64 %21, 16
  call void @llvm.assume(i1 %22)
  br label %_ZSt8_DestroyIN3nix8FlakeRefEEvPT_.exit.i.i.i.i.i.i.i

_ZNKSt7__cxx1112basic_stringIcSt11char_traitsIcESaIcEE11_M_is_localEv.exit.i.i.i.i.i.i.i.i.i.i.i.i: ; preds = %.lr.ph.i.i.i.i.i.i.i
  call void @_ZdlPv(ptr noundef %17) #31
  br label %_ZSt8_DestroyIN3nix8FlakeRefEEvPT_.exit.i.i.i.i.i.i.i

_ZSt8_DestroyIN3nix8FlakeRefEEvPT_.exit.i.i.i.i.i.i.i: ; preds = %_ZNKSt7__cxx1112basic_stringIcSt11char_traitsIcESaIcEE11_M_is_localEv.exit.i.i.i.i.i.i.i.i.i.i.i.i, %_ZNKSt7__cxx1112basic_stringIcSt11char_traitsIcESaIcEE11_M_is_localEv.exit.thread.i.i.i.i.i.i.i.i.i.i.i.i
  call void @_ZNSaIcED2Ev(ptr noundef nonnull align 1 dereferenceable(1) %16) #28
  call void @_ZN3nix8fetchers5InputD2Ev(ptr noundef nonnull align 8 dereferenceable(104) %.05.i.i.i.i.i.i.i) #28
  %23 = getelementptr inbounds i8, ptr %.05.i.i.i.i.i.i.i, i64 136
  %.not.i.i.i.i.i.i.i = icmp eq ptr %23, %15
  br i1 %.not.i.i.i.i.i.i.i, label %_ZSt8_DestroyIPN3nix8FlakeRefES1_EvT_S3_RSaIT0_E.exitthread-pre-split.i.i.i.i, label %.lr.ph.i.i.i.i.i.i.i, !llvm.loop !134

_ZSt8_DestroyIPN3nix8FlakeRefES1_EvT_S3_RSaIT0_E.exitthread-pre-split.i.i.i.i: ; preds = %_ZSt8_DestroyIN3nix8FlakeRefEEvPT_.exit.i.i.i.i.i.i.i
  %.pr.i.i.i.i = load ptr, ptr %6, align 8
  br label %_ZSt8_DestroyIPN3nix8FlakeRefES1_EvT_S3_RSaIT0_E.exit.i.i.i.i

_ZSt8_DestroyIPN3nix8FlakeRefES1_EvT_S3_RSaIT0_E.exit.i.i.i.i: ; preds = %_ZSt8_DestroyIPN3nix8FlakeRefES1_EvT_S3_RSaIT0_E.exitthread-pre-split.i.i.i.i, %12
  %24 = phi ptr [ %.pr.i.i.i.i, %_ZSt8_DestroyIPN3nix8FlakeRefES1_EvT_S3_RSaIT0_E.exitthread-pre-split.i.i.i.i ], [ %13, %12 ]
  %.not.i.i.i.i.i.i = icmp eq ptr %24, null
  br i1 %.not.i.i.i.i.i.i, label %_ZNSt6vectorIN3nix8FlakeRefESaIS1_EED2Ev.exit.i.i.i, label %25

25:                                               ; preds = %_ZSt8_DestroyIPN3nix8FlakeRefES1_EvT_S3_RSaIT0_E.exit.i.i.i.i
  call void @_ZdlPv(ptr noundef nonnull %24) #31
  br label %_ZNSt6vectorIN3nix8FlakeRefESaIS1_EED2Ev.exit.i.i.i

_ZNSt6vectorIN3nix8FlakeRefESaIS1_EED2Ev.exit.i.i.i: ; preds = %25, %_ZSt8_DestroyIPN3nix8FlakeRefES1_EvT_S3_RSaIT0_E.exit.i.i.i.i
  %26 = getelementptr inbounds i8, ptr %5, i64 8
  %27 = load ptr, ptr %26, align 8
  %.not.i.i.i.i7.i.i.i = icmp eq ptr %27, null
  br i1 %.not.i.i.i.i7.i.i.i, label %"_ZSt10__invoke_rIvRZN3nix15MixFlakeOptionsC1EvE3$_3JRNS0_14AddCompletionsEmSt17basic_string_viewIcSt11char_traitsIcEEEENSt9enable_ifIX16is_invocable_r_vIT_T0_DpT1_EESB_E4typeEOSC_DpOSD_.exit", label %28

28:                                               ; preds = %_ZNSt6vectorIN3nix8FlakeRefESaIS1_EED2Ev.exit.i.i.i
  %29 = getelementptr inbounds i8, ptr %27, i64 8
  %30 = load atomic i64, ptr %29 acquire, align 8
  %31 = icmp eq i64 %30, 4294967297
  %32 = trunc i64 %30 to i32
  br i1 %31, label %33, label %38

33:                                               ; preds = %28
  store i32 0, ptr %29, align 8
  %34 = getelementptr inbounds i8, ptr %27, i64 12
  store i32 0, ptr %34, align 4
  %35 = load ptr, ptr %27, align 8
  %36 = getelementptr inbounds i8, ptr %35, i64 16
  %37 = load ptr, ptr %36, align 8
  call void %37(ptr noundef nonnull align 8 dereferenceable(16) %27) #28
  br label %_ZNSt16_Sp_counted_baseILN9__gnu_cxx12_Lock_policyE2EE24_M_release_last_use_coldEv.exit.sink.split.i.i.i.i.i.i.i.i

38:                                               ; preds = %28
  %39 = load i8, ptr @__libc_single_threaded, align 1
  %.not.i.i.i.i.i.i.i.i = icmp eq i8 %39, 0
  br i1 %.not.i.i.i.i.i.i.i.i, label %42, label %40

40:                                               ; preds = %38
  %41 = add nsw i32 %32, -1
  store i32 %41, ptr %29, align 4
  br label %44

42:                                               ; preds = %38
  %43 = atomicrmw volatile add ptr %29, i32 -1 acq_rel, align 4
  br label %44

44:                                               ; preds = %42, %40
  %.0.i.i.i.i.i.i.i.i = phi i32 [ %32, %40 ], [ %43, %42 ]
  %45 = icmp eq i32 %.0.i.i.i.i.i.i.i.i, 1
  br i1 %45, label %46, label %"_ZSt10__invoke_rIvRZN3nix15MixFlakeOptionsC1EvE3$_3JRNS0_14AddCompletionsEmSt17basic_string_viewIcSt11char_traitsIcEEEENSt9enable_ifIX16is_invocable_r_vIT_T0_DpT1_EESB_E4typeEOSC_DpOSD_.exit"

46:                                               ; preds = %44
  %47 = load ptr, ptr %27, align 8
  %48 = getelementptr inbounds i8, ptr %47, i64 16
  %49 = load ptr, ptr %48, align 8
  call void %49(ptr noundef nonnull align 8 dereferenceable(16) %27) #28
  %50 = getelementptr inbounds i8, ptr %27, i64 12
  %51 = load i8, ptr @__libc_single_threaded, align 1
  %.not.i.i.i.i.i.i.i.i.i.i = icmp eq i8 %51, 0
  br i1 %.not.i.i.i.i.i.i.i.i.i.i, label %55, label %52

52:                                               ; preds = %46
  %53 = load i32, ptr %50, align 4
  %54 = add nsw i32 %53, -1
  store i32 %54, ptr %50, align 4
  br label %57

55:                                               ; preds = %46
  %56 = atomicrmw volatile add ptr %50, i32 -1 acq_rel, align 4
  br label %57

57:                                               ; preds = %55, %52
  %.0.i.i.i.i.i.i.i.i.i.i = phi i32 [ %53, %52 ], [ %56, %55 ]
  %58 = icmp eq i32 %.0.i.i.i.i.i.i.i.i.i.i, 1
  br i1 %58, label %_ZNSt16_Sp_counted_baseILN9__gnu_cxx12_Lock_policyE2EE24_M_release_last_use_coldEv.exit.sink.split.i.i.i.i.i.i.i.i, label %"_ZSt10__invoke_rIvRZN3nix15MixFlakeOptionsC1EvE3$_3JRNS0_14AddCompletionsEmSt17basic_string_viewIcSt11char_traitsIcEEEENSt9enable_ifIX16is_invocable_r_vIT_T0_DpT1_EESB_E4typeEOSC_DpOSD_.exit"

_ZNSt16_Sp_counted_baseILN9__gnu_cxx12_Lock_policyE2EE24_M_release_last_use_coldEv.exit.sink.split.i.i.i.i.i.i.i.i: ; preds = %57, %33
  %59 = load ptr, ptr %27, align 8
  %60 = getelementptr inbounds i8, ptr %59, i64 24
  %61 = load ptr, ptr %60, align 8
  call void %61(ptr noundef nonnull align 8 dereferenceable(16) %27) #28
  br label %"_ZSt10__invoke_rIvRZN3nix15MixFlakeOptionsC1EvE3$_3JRNS0_14AddCompletionsEmSt17basic_string_viewIcSt11char_traitsIcEEEENSt9enable_ifIX16is_invocable_r_vIT_T0_DpT1_EESB_E4typeEOSC_DpOSD_.exit"

62:                                               ; preds = %4
  %63 = landingpad { ptr, i32 }
          cleanup
  br label %66

64:                                               ; preds = %11
  %65 = landingpad { ptr, i32 }
          cleanup
  call void @_ZNSt6vectorIN3nix8FlakeRefESaIS1_EED2Ev(ptr noundef nonnull align 8 dereferenceable(24) %6) #28
  br label %66

66:                                               ; preds = %64, %62
  %.pn.i.i.i = phi { ptr, i32 } [ %65, %64 ], [ %63, %62 ]
  call void @_ZN3nix3refINS_9EvalStateEED2Ev(ptr noundef nonnull align 8 dereferenceable(16) %5) #28
  resume { ptr, i32 } %.pn.i.i.i

"_ZSt10__invoke_rIvRZN3nix15MixFlakeOptionsC1EvE3$_3JRNS0_14AddCompletionsEmSt17basic_string_viewIcSt11char_traitsIcEEEENSt9enable_ifIX16is_invocable_r_vIT_T0_DpT1_EESB_E4typeEOSC_DpOSD_.exit": ; preds = %_ZNSt6vectorIN3nix8FlakeRefESaIS1_EED2Ev.exit.i.i.i, %44, %57, %_ZNSt16_Sp_counted_baseILN9__gnu_cxx12_Lock_policyE2EE24_M_release_last_use_coldEv.exit.sink.split.i.i.i.i.i.i.i.i
  call void @llvm.lifetime.end.p0(i64 16, ptr nonnull %5)
  call void @llvm.lifetime.end.p0(i64 24, ptr nonnull %6)
  ret void
}